; Function Attrs: mustprogress uwtable
define dso_local void @_ZNK6icu_7723BuilderReorderingBuffer8toStringERNS_13UnicodeStringE(ptr noundef nonnull readonly align 4 captures(none) dereferenceable(133) %0, ptr noundef nonnull align 8 dereferenceable(64) %1) local_unnamed_addr #2 align 2 {
  %3 = getelementptr inbounds nuw i8, ptr %1, i64 8
  %4 = load i16, ptr %3, align 8, !tbaa !15
  %5 = and i16 %4, 1
  %.not.i = icmp eq i16 %5, 0
  %6 = and i16 %4, 30
  %storemerge.i = select i1 %.not.i, i16 %6, i16 2
  store i16 %storemerge.i, ptr %3, align 8, !tbaa !15
  %7 = getelementptr inbounds nuw i8, ptr %0, i64 124
  %8 = load i32, ptr %7, align 4, !tbaa !4
  %9 = icmp sgt i32 %8, 0
  br i1 %9, label %.lr.ph, label %._crit_edge

._crit_edge:                                      ; preds = %.lr.ph, %2
  ret void

.lr.ph:                                           ; preds = %2, %.lr.ph
  %indvars.iv = phi i64 [ %indvars.iv.next, %.lr.ph ], [ 0, %2 ]
  %10 = getelementptr inbounds nuw [31 x i32], ptr %0, i64 0, i64 %indvars.iv
  %11 = load i32, ptr %10, align 4, !tbaa !9
  %12 = ashr i32 %11, 8
  %13 = tail call noundef nonnull align 8 dereferenceable(64) ptr @_ZN6icu_7713UnicodeString6appendEi(ptr noundef nonnull align 8 dereferenceable(64) %1, i32 noundef %12)
  %indvars.iv.next = add nuw nsw i64 %indvars.iv, 1
  %14 = load i32, ptr %7, align 4, !tbaa !4
  %15 = sext i32 %14 to i64
  %16 = icmp slt i64 %indvars.iv.next, %15
  br i1 %16, label %.lr.ph, label %._crit_edge, !llvm.loop !16
}